; Function Attrs: mustprogress uwtable
define dso_local noundef zeroext i1 @_ZN3tev11ImageViewer10drop_eventERKNSt3__16vectorINS1_12basic_stringIcNS1_11char_traitsIcEENS1_9allocatorIcEEEENS6_IS8_EEEE(ptr noundef nonnull align 16 dereferenceable(972) %0, ptr nocapture noundef nonnull readonly align 8 dereferenceable(24) %1) unnamed_addr #7 align 2 personality ptr @__gxx_personality_v0 {
  %3 = alloca %"class.std::__1::__fs::filesystem::path", align 8
  %4 = alloca %"class.std::__1::basic_string", align 8
  %5 = alloca %"class.std::__1::shared_ptr.24", align 8
  %6 = getelementptr inbounds i8, ptr %1, i64 8
  %7 = load ptr, ptr %6, align 8
  %8 = load ptr, ptr %1, align 8
  %.not = icmp eq ptr %7, %8
  br i1 %.not, label %._crit_edge, label %.lr.ph

.lr.ph:                                           ; preds = %2
  %9 = getelementptr inbounds i8, ptr %0, i64 640
  %10 = getelementptr inbounds i8, ptr %5, i64 8
  br label %11

11:                                               ; preds = %.lr.ph, %_ZNSt3__110shared_ptrIN3tev5ImageEED2B8ne190000Ev.exit
  %12 = phi ptr [ %8, %.lr.ph ], [ %35, %_ZNSt3__110shared_ptrIN3tev5ImageEED2B8ne190000Ev.exit ]
  %.01215 = phi i64 [ 0, %.lr.ph ], [ %33, %_ZNSt3__110shared_ptrIN3tev5ImageEED2B8ne190000Ev.exit ]
  %13 = load ptr, ptr %9, align 16
  %14 = getelementptr inbounds %"class.std::__1::basic_string", ptr %12, i64 %.01215
  call void @_ZN3tev6toPathERKNSt3__112basic_stringIcNS0_11char_traitsIcEENS0_9allocatorIcEEEE(ptr dead_on_unwind nonnull writable sret(%"class.std::__1::__fs::filesystem::path") align 8 %3, ptr noundef nonnull align 8 dereferenceable(24) %14)
  invoke void @_ZNSt3__112basic_stringIcNS_11char_traitsIcEENS_9allocatorIcEEE6__initEPKcm(ptr noundef nonnull align 8 dereferenceable(24) %4, ptr noundef nonnull @.str.4, i64 noundef 0)
          to label %_ZNSt3__112basic_stringIcNS_11char_traitsIcEENS_9allocatorIcEEEC2B8ne190000ILi0EEEPKc.exit unwind label %41

_ZNSt3__112basic_stringIcNS_11char_traitsIcEENS_9allocatorIcEEEC2B8ne190000ILi0EEEPKc.exit: ; preds = %11
  %15 = load ptr, ptr %6, align 8
  %16 = load ptr, ptr %1, align 8
  %17 = ptrtoint ptr %15 to i64
  %18 = ptrtoint ptr %16 to i64
  %19 = sub i64 %17, %18
  %20 = sdiv exact i64 %19, 24
  %21 = add nsw i64 %20, -1
  %22 = icmp eq i64 %.01215, %21
  call void @llvm.memset.p0.i64(ptr noundef nonnull align 8 dereferenceable(16) %5, i8 0, i64 16, i1 false)
  invoke void @_ZN3tev22BackgroundImagesLoader7enqueueERKNSt3__14__fs10filesystem4pathERKNS1_12basic_stringIcNS1_11char_traitsIcEENS1_9allocatorIcEEEEbRKNS1_10shared_ptrINS_5ImageEEE(ptr noundef nonnull align 8 dereferenceable(272) %13, ptr noundef nonnull align 8 dereferenceable(24) %3, ptr noundef nonnull align 8 dereferenceable(24) %4, i1 noundef zeroext %22, ptr noundef nonnull align 8 dereferenceable(16) %5)
          to label %23 unwind label %43

23:                                               ; preds = %_ZNSt3__112basic_stringIcNS_11char_traitsIcEENS_9allocatorIcEEEC2B8ne190000ILi0EEEPKc.exit
  %24 = load ptr, ptr %10, align 8
  %.not.i = icmp eq ptr %24, null
  br i1 %.not.i, label %_ZNSt3__110shared_ptrIN3tev5ImageEED2B8ne190000Ev.exit, label %25

25:                                               ; preds = %23
  %26 = getelementptr inbounds i8, ptr %24, i64 8
  %27 = atomicrmw add ptr %26, i64 -1 acq_rel, align 8
  %28 = icmp eq i64 %27, 0
  br i1 %28, label %29, label %_ZNSt3__110shared_ptrIN3tev5ImageEED2B8ne190000Ev.exit

29:                                               ; preds = %25
  %30 = load ptr, ptr %24, align 8
  %31 = getelementptr inbounds i8, ptr %30, i64 16
  %32 = load ptr, ptr %31, align 8
  call void %32(ptr noundef nonnull align 8 dereferenceable(16) %24) #39
  call void @_ZNSt3__119__shared_weak_count14__release_weakEv(ptr noundef nonnull align 8 dereferenceable(24) %24) #39
  br label %_ZNSt3__110shared_ptrIN3tev5ImageEED2B8ne190000Ev.exit

_ZNSt3__110shared_ptrIN3tev5ImageEED2B8ne190000Ev.exit: ; preds = %23, %25, %29
  call void @_ZNSt3__112basic_stringIcNS_11char_traitsIcEENS_9allocatorIcEEED1Ev(ptr noundef nonnull align 8 dereferenceable(24) %4) #39
  call void @_ZNSt3__112basic_stringIcNS_11char_traitsIcEENS_9allocatorIcEEED1Ev(ptr noundef nonnull align 8 dereferenceable(24) %3) #39
  %33 = add nuw i64 %.01215, 1
  %34 = load ptr, ptr %6, align 8
  %35 = load ptr, ptr %1, align 8
  %36 = ptrtoint ptr %34 to i64
  %37 = ptrtoint ptr %35 to i64
  %38 = sub i64 %36, %37
  %39 = sdiv exact i64 %38, 24
  %40 = icmp ult i64 %33, %39
  br i1 %40, label %11, label %._crit_edge, !llvm.loop !123

41:                                               ; preds = %11
  %42 = landingpad { ptr, i32 }
          cleanup
  br label %45

43:                                               ; preds = %_ZNSt3__112basic_stringIcNS_11char_traitsIcEENS_9allocatorIcEEEC2B8ne190000ILi0EEEPKc.exit
  %44 = landingpad { ptr, i32 }
          cleanup
  call void @_ZNSt3__110shared_ptrIN3tev5ImageEED2B8ne190000Ev(ptr noundef nonnull align 8 dereferenceable(16) %5) #39
  call void @_ZNSt3__112basic_stringIcNS_11char_traitsIcEENS_9allocatorIcEEED1Ev(ptr noundef nonnull align 8 dereferenceable(24) %4) #39
  br label %45

45:                                               ; preds = %43, %41
  %.pn = phi { ptr, i32 } [ %44, %43 ], [ %42, %41 ]
  call void @_ZNSt3__112basic_stringIcNS_11char_traitsIcEENS_9allocatorIcEEED1Ev(ptr noundef nonnull align 8 dereferenceable(24) %3) #39
  resume { ptr, i32 } %.pn

._crit_edge:                                      ; preds = %_ZNSt3__110shared_ptrIN3tev5ImageEED2B8ne190000Ev.exit, %2
  %46 = getelementptr inbounds i8, ptr %0, i64 136
  %47 = load ptr, ptr %46, align 8
  call void @glfwFocusWindow(ptr noundef %47)
  call void @_ZN7nanogui6Screen6redrawEv(ptr noundef nonnull align 16 dereferenceable(384) %0)
  ret i1 true
}